; Function Attrs: nounwind uwtable
define i32 @wolfSSL_use_certificate_buffer(ptr noundef %0, ptr noundef %1, i64 noundef %2, i32 noundef %3) local_unnamed_addr #0 {
  %5 = icmp eq ptr %0, null
  br i1 %5, label %13, label %6

6:                                                ; preds = %4
  %7 = load ptr, ptr %0, align 16, !tbaa !96
  %8 = getelementptr inbounds nuw i8, ptr %0, i64 1024
  %9 = load i64, ptr %8, align 8
  %10 = and i64 %9, 128
  %.not = icmp eq i64 %10, 0
  %11 = zext i1 %.not to i32
  %12 = tail call i32 @ProcessBuffer(ptr noundef %7, ptr noundef %1, i64 noundef %2, i32 noundef %3, i32 noundef 0, ptr noundef nonnull %0, ptr noundef null, i32 noundef 0, i32 noundef %11)
  br label %13

13:                                               ; preds = %4, %6
  %.0 = phi i32 [ %12, %6 ], [ -173, %4 ]
  ret i32 %.0
}